target datalayout = "e-m:e-p270:32:32-p271:32:32-p272:64:64-i64:64-i128:128-f80:128-n8:16:32:64-S128"
target triple = "x86_64-pc-linux-gnu"

%struct._lv_tree_node_t = type { ptr, ptr, i32, i32, ptr }
%struct._lv_tree_class_t = type { ptr, i32, ptr, ptr }

; Function Attrs: nounwind uwtable
define internal void @_lv_tree_node_destruct(ptr noundef %0) #0 {
  %2 = alloca ptr, align 8
  store ptr %0, ptr %2, align 8, !tbaa !3
  %3 = load ptr, ptr %2, align 8, !tbaa !3
  %4 = getelementptr inbounds nuw %struct._lv_tree_node_t, ptr %3, i32 0, i32 4
  %5 = load ptr, ptr %4, align 8, !tbaa !7
  %6 = getelementptr inbounds nuw %struct._lv_tree_class_t, ptr %5, i32 0, i32 3
  %7 = load ptr, ptr %6, align 8, !tbaa !26
  %8 = icmp ne ptr %7, null
  br i1 %8, label %9, label %19

9:                                                ; preds = %1
  %10 = load ptr, ptr %2, align 8, !tbaa !3
  %11 = getelementptr inbounds nuw %struct._lv_tree_node_t, ptr %10, i32 0, i32 4
  %12 = load ptr, ptr %11, align 8, !tbaa !7
  %13 = getelementptr inbounds nuw %struct._lv_tree_class_t, ptr %12, i32 0, i32 3
  %14 = load ptr, ptr %13, align 8, !tbaa !26
  %15 = load ptr, ptr %2, align 8, !tbaa !3
  %16 = getelementptr inbounds nuw %struct._lv_tree_node_t, ptr %15, i32 0, i32 4
  %17 = load ptr, ptr %16, align 8, !tbaa !7
  %18 = load ptr, ptr %2, align 8, !tbaa !3
  call void %14(ptr noundef %17, ptr noundef %18)
  br label %19

19:                                               ; preds = %9, %1
  %20 = load ptr, ptr %2, align 8, !tbaa !3
  %21 = getelementptr inbounds nuw %struct._lv_tree_node_t, ptr %20, i32 0, i32 4
  %22 = load ptr, ptr %21, align 8, !tbaa !7
  %23 = getelementptr inbounds nuw %struct._lv_tree_class_t, ptr %22, i32 0, i32 0
  %24 = load ptr, ptr %23, align 8, !tbaa !15
  %25 = icmp ne ptr %24, null
  br i1 %25, label %26, label %35

26:                                               ; preds = %19
  %27 = load ptr, ptr %2, align 8, !tbaa !3
  %28 = getelementptr inbounds nuw %struct._lv_tree_node_t, ptr %27, i32 0, i32 4
  %29 = load ptr, ptr %28, align 8, !tbaa !7
  %30 = getelementptr inbounds nuw %struct._lv_tree_class_t, ptr %29, i32 0, i32 0
  %31 = load ptr, ptr %30, align 8, !tbaa !15
  %32 = load ptr, ptr %2, align 8, !tbaa !3
  %33 = getelementptr inbounds nuw %struct._lv_tree_node_t, ptr %32, i32 0, i32 4
  store ptr %31, ptr %33, align 8, !tbaa !7
  %34 = load ptr, ptr %2, align 8, !tbaa !3
  call void @_lv_tree_node_destruct(ptr noundef %34)
  br label %35

35:                                               ; preds = %26, %19
  ret void
}

; Function Attrs: nounwind uwtable
define internal zeroext i1 @_lv_tree_node_destructor_cb(ptr noundef %0, ptr noundef %1) #0 {
  %3 = alloca ptr, align 8
  %4 = alloca ptr, align 8
  %5 = alloca ptr, align 8
  store ptr %0, ptr %3, align 8, !tbaa !3
  store ptr %1, ptr %4, align 8, !tbaa !3
  %6 = load ptr, ptr %3, align 8, !tbaa !3
  %7 = icmp ne ptr %6, null
  br i1 %7, label %8, label %15

8:                                                ; preds = %2
  call void @llvm.lifetime.start.p0(i64 8, ptr %5) #4
  %9 = load ptr, ptr %3, align 8, !tbaa !3
  store ptr %9, ptr %5, align 8, !tbaa !3
  %10 = load ptr, ptr %5, align 8, !tbaa !3
  call void @_lv_tree_node_destruct(ptr noundef %10)
  %11 = load ptr, ptr %5, align 8, !tbaa !3
  %12 = getelementptr inbounds nuw %struct._lv_tree_node_t, ptr %11, i32 0, i32 1
  %13 = load ptr, ptr %12, align 8, !tbaa !13
  call void @lv_free(ptr noundef %13)
  %14 = load ptr, ptr %5, align 8, !tbaa !3
  call void @lv_free(ptr noundef %14)
  call void @llvm.lifetime.end.p0(i64 8, ptr %5) #4
  br label %15

15:                                               ; preds = %8, %2
  ret i1 true
}