; Function Attrs: nounwind uwtable
define internal noundef zeroext i1 @_lv_tree_node_destructor_cb(ptr noundef %0, ptr nocapture readnone %1) #0 {
  %.not = icmp eq ptr %0, null
  br i1 %.not, label %15, label %3

3:                                                ; preds = %2
  %4 = getelementptr inbounds nuw i8, ptr %0, i64 24
  %.pre.i = load ptr, ptr %4, align 8, !tbaa !11
  br label %tailrecurse.i

tailrecurse.i:                                    ; preds = %12, %3
  %5 = phi ptr [ %11, %12 ], [ %.pre.i, %3 ]
  %6 = getelementptr inbounds nuw i8, ptr %5, i64 24
  %7 = load ptr, ptr %6, align 8, !tbaa !22
  %.not.i = icmp eq ptr %7, null
  br i1 %.not.i, label %9, label %8

8:                                                ; preds = %tailrecurse.i
  tail call void %7(ptr noundef nonnull %5, ptr noundef nonnull %0) #3
  %.pre10.i = load ptr, ptr %4, align 8, !tbaa !11
  br label %9

9:                                                ; preds = %8, %tailrecurse.i
  %10 = phi ptr [ %.pre10.i, %8 ], [ %5, %tailrecurse.i ]
  %11 = load ptr, ptr %10, align 8, !tbaa !9
  %.not9.i = icmp eq ptr %11, null
  br i1 %.not9.i, label %_lv_tree_node_destruct.exit, label %12

12:                                               ; preds = %9
  store ptr %11, ptr %4, align 8, !tbaa !11
  br label %tailrecurse.i

_lv_tree_node_destruct.exit:                      ; preds = %9
  %13 = getelementptr inbounds nuw i8, ptr %0, i64 8
  %14 = load ptr, ptr %13, align 8, !tbaa !15
  tail call void @lv_free(ptr noundef %14) #3
  tail call void @lv_free(ptr noundef nonnull %0) #3
  br label %15

15:                                               ; preds = %_lv_tree_node_destruct.exit, %2
  ret i1 true
}